target datalayout = "e-m:e-p270:32:32-p271:32:32-p272:64:64-i64:64-i128:128-f80:128-n8:16:32:64-S128"
target triple = "x86_64-pc-linux-gnu"

; Function Attrs: inlinehint mustprogress nounwind uwtable
define linkonce_odr dso_local noundef float @_ZSt5ldexpfi(float noundef %0, i32 noundef %1) #13 comdat {
  %3 = alloca float, align 4
  %4 = alloca i32, align 4
  store float %0, ptr %3, align 4, !tbaa !49
  store i32 %1, ptr %4, align 4, !tbaa !10
  %5 = load float, ptr %3, align 4, !tbaa !49
  %6 = load i32, ptr %4, align 4, !tbaa !10
  %7 = call float @ldexpf(float noundef %5, i32 noundef %6) #22, !tbaa !10
  ret float %7
}

; Function Attrs: mustprogress uwtable
define internal void @_ZL17stbi__hdr_convertPfPhi(ptr noundef %0, ptr noundef %1, i32 noundef %2) #3 {
  %4 = alloca ptr, align 8
  %5 = alloca ptr, align 8
  %6 = alloca i32, align 4
  %7 = alloca float, align 4
  store ptr %0, ptr %4, align 8, !tbaa !45
  store ptr %1, ptr %5, align 8, !tbaa !4
  store i32 %2, ptr %6, align 4, !tbaa !10
  %8 = load ptr, ptr %5, align 8, !tbaa !4
  %9 = getelementptr inbounds i8, ptr %8, i64 3
  %10 = load i8, ptr %9, align 1, !tbaa !57
  %11 = zext i8 %10 to i32
  %12 = icmp ne i32 %11, 0
  br i1 %12, label %13, label %84

13:                                               ; preds = %3
  call void @llvm.lifetime.start.p0(i64 4, ptr %7) #22
  %14 = load ptr, ptr %5, align 8, !tbaa !4
  %15 = getelementptr inbounds i8, ptr %14, i64 3
  %16 = load i8, ptr %15, align 1, !tbaa !57
  %17 = zext i8 %16 to i32
  %18 = sub nsw i32 %17, 136
  %19 = call noundef float @_ZSt5ldexpfi(float noundef 1.000000e+00, i32 noundef %18)
  store float %19, ptr %7, align 4, !tbaa !49
  %20 = load i32, ptr %6, align 4, !tbaa !10
  %21 = icmp sle i32 %20, 2
  br i1 %21, label %22, label %43

22:                                               ; preds = %13
  %23 = load ptr, ptr %5, align 8, !tbaa !4
  %24 = getelementptr inbounds i8, ptr %23, i64 0
  %25 = load i8, ptr %24, align 1, !tbaa !57
  %26 = zext i8 %25 to i32
  %27 = load ptr, ptr %5, align 8, !tbaa !4
  %28 = getelementptr inbounds i8, ptr %27, i64 1
  %29 = load i8, ptr %28, align 1, !tbaa !57
  %30 = zext i8 %29 to i32
  %31 = add nsw i32 %26, %30
  %32 = load ptr, ptr %5, align 8, !tbaa !4
  %33 = getelementptr inbounds i8, ptr %32, i64 2
  %34 = load i8, ptr %33, align 1, !tbaa !57
  %35 = zext i8 %34 to i32
  %36 = add nsw i32 %31, %35
  %37 = sitofp i32 %36 to float
  %38 = load float, ptr %7, align 4, !tbaa !49
  %39 = fmul float %37, %38
  %40 = fdiv float %39, 3.000000e+00
  %41 = load ptr, ptr %4, align 8, !tbaa !45
  %42 = getelementptr inbounds float, ptr %41, i64 0
  store float %40, ptr %42, align 4, !tbaa !49
  br label %71

43:                                               ; preds = %13
  %44 = load ptr, ptr %5, align 8, !tbaa !4
  %45 = getelementptr inbounds i8, ptr %44, i64 0
  %46 = load i8, ptr %45, align 1, !tbaa !57
  %47 = zext i8 %46 to i32
  %48 = sitofp i32 %47 to float
  %49 = load float, ptr %7, align 4, !tbaa !49
  %50 = fmul float %48, %49
  %51 = load ptr, ptr %4, align 8, !tbaa !45
  %52 = getelementptr inbounds float, ptr %51, i64 0
  store float %50, ptr %52, align 4, !tbaa !49
  %53 = load ptr, ptr %5, align 8, !tbaa !4
  %54 = getelementptr inbounds i8, ptr %53, i64 1
  %55 = load i8, ptr %54, align 1, !tbaa !57
  %56 = zext i8 %55 to i32
  %57 = sitofp i32 %56 to float
  %58 = load float, ptr %7, align 4, !tbaa !49
  %59 = fmul float %57, %58
  %60 = load ptr, ptr %4, align 8, !tbaa !45
  %61 = getelementptr inbounds float, ptr %60, i64 1
  store float %59, ptr %61, align 4, !tbaa !49
  %62 = load ptr, ptr %5, align 8, !tbaa !4
  %63 = getelementptr inbounds i8, ptr %62, i64 2
  %64 = load i8, ptr %63, align 1, !tbaa !57
  %65 = zext i8 %64 to i32
  %66 = sitofp i32 %65 to float
  %67 = load float, ptr %7, align 4, !tbaa !49
  %68 = fmul float %66, %67
  %69 = load ptr, ptr %4, align 8, !tbaa !45
  %70 = getelementptr inbounds float, ptr %69, i64 2
  store float %68, ptr %70, align 4, !tbaa !49
  br label %71

71:                                               ; preds = %43, %22
  %72 = load i32, ptr %6, align 4, !tbaa !10
  %73 = icmp eq i32 %72, 2
  br i1 %73, label %74, label %77

74:                                               ; preds = %71
  %75 = load ptr, ptr %4, align 8, !tbaa !45
  %76 = getelementptr inbounds float, ptr %75, i64 1
  store float 1.000000e+00, ptr %76, align 4, !tbaa !49
  br label %77

77:                                               ; preds = %74, %71
  %78 = load i32, ptr %6, align 4, !tbaa !10
  %79 = icmp eq i32 %78, 4
  br i1 %79, label %80, label %83

80:                                               ; preds = %77
  %81 = load ptr, ptr %4, align 8, !tbaa !45
  %82 = getelementptr inbounds float, ptr %81, i64 3
  store float 1.000000e+00, ptr %82, align 4, !tbaa !49
  br label %83

83:                                               ; preds = %80, %77
  call void @llvm.lifetime.end.p0(i64 4, ptr %7) #22
  br label %103

84:                                               ; preds = %3
  %85 = load i32, ptr %6, align 4, !tbaa !10
  switch i32 %85, label %102 [
    i32 4, label %86
    i32 3, label %89
    i32 2, label %96
    i32 1, label %99
  ]

86:                                               ; preds = %84
  %87 = load ptr, ptr %4, align 8, !tbaa !45
  %88 = getelementptr inbounds float, ptr %87, i64 3
  store float 1.000000e+00, ptr %88, align 4, !tbaa !49
  br label %89

89:                                               ; preds = %84, %86
  %90 = load ptr, ptr %4, align 8, !tbaa !45
  %91 = getelementptr inbounds float, ptr %90, i64 2
  store float 0.000000e+00, ptr %91, align 4, !tbaa !49
  %92 = load ptr, ptr %4, align 8, !tbaa !45
  %93 = getelementptr inbounds float, ptr %92, i64 1
  store float 0.000000e+00, ptr %93, align 4, !tbaa !49
  %94 = load ptr, ptr %4, align 8, !tbaa !45
  %95 = getelementptr inbounds float, ptr %94, i64 0
  store float 0.000000e+00, ptr %95, align 4, !tbaa !49
  br label %102

96:                                               ; preds = %84
  %97 = load ptr, ptr %4, align 8, !tbaa !45
  %98 = getelementptr inbounds float, ptr %97, i64 1
  store float 1.000000e+00, ptr %98, align 4, !tbaa !49
  br label %99

99:                                               ; preds = %84, %96
  %100 = load ptr, ptr %4, align 8, !tbaa !45
  %101 = getelementptr inbounds float, ptr %100, i64 0
  store float 0.000000e+00, ptr %101, align 4, !tbaa !49
  br label %102

102:                                              ; preds = %84, %99, %89
  br label %103

103:                                              ; preds = %102, %83
  ret void
}