; Function Attrs: mustprogress nofree nounwind willreturn uwtable
define internal fastcc void @_ZL17stbi__hdr_convertPfPhi(ptr noundef nonnull writeonly captures(none) %0, ptr noundef nonnull readonly captures(none) %1, i32 noundef %2) unnamed_addr #33 {
  %4 = getelementptr inbounds nuw i8, ptr %1, i64 3
  %5 = load i8, ptr %4, align 1, !tbaa !22
  %.not = icmp eq i8 %5, 0
  br i1 %.not, label %43, label %6

6:                                                ; preds = %3
  %7 = zext i8 %5 to i32
  %8 = add nsw i32 %7, -136
  %9 = tail call noundef float @ldexpf(float noundef 1.000000e+00, i32 noundef %8) #40, !tbaa !9
  %10 = icmp slt i32 %2, 3
  %11 = load i8, ptr %1, align 1, !tbaa !22
  br i1 %10, label %12, label %25

12:                                               ; preds = %6
  %13 = zext i8 %11 to i32
  %14 = getelementptr inbounds nuw i8, ptr %1, i64 1
  %15 = load i8, ptr %14, align 1, !tbaa !22
  %16 = zext i8 %15 to i32
  %17 = add nuw nsw i32 %16, %13
  %18 = getelementptr inbounds nuw i8, ptr %1, i64 2
  %19 = load i8, ptr %18, align 1, !tbaa !22
  %20 = zext i8 %19 to i32
  %21 = add nuw nsw i32 %17, %20
  %22 = uitofp nneg i32 %21 to float
  %23 = fmul float %9, %22
  %24 = fdiv float %23, 3.000000e+00
  store float %24, ptr %0, align 4, !tbaa !44
  br label %38

25:                                               ; preds = %6
  %26 = uitofp i8 %11 to float
  %27 = fmul float %9, %26
  store float %27, ptr %0, align 4, !tbaa !44
  %28 = getelementptr inbounds nuw i8, ptr %1, i64 1
  %29 = load i8, ptr %28, align 1, !tbaa !22
  %30 = uitofp i8 %29 to float
  %31 = fmul float %9, %30
  %32 = getelementptr inbounds nuw i8, ptr %0, i64 4
  store float %31, ptr %32, align 4, !tbaa !44
  %33 = getelementptr inbounds nuw i8, ptr %1, i64 2
  %34 = load i8, ptr %33, align 1, !tbaa !22
  %35 = uitofp i8 %34 to float
  %36 = fmul float %9, %35
  %37 = getelementptr inbounds nuw i8, ptr %0, i64 8
  store float %36, ptr %37, align 4, !tbaa !44
  br label %38

38:                                               ; preds = %25, %12
  switch i32 %2, label %52 [
    i32 2, label %39
    i32 4, label %41
  ]

39:                                               ; preds = %38
  %40 = getelementptr inbounds nuw i8, ptr %0, i64 4
  store float 1.000000e+00, ptr %40, align 4, !tbaa !44
  br label %52

41:                                               ; preds = %38
  %42 = getelementptr inbounds nuw i8, ptr %0, i64 12
  store float 1.000000e+00, ptr %42, align 4, !tbaa !44
  br label %52

43:                                               ; preds = %3
  switch i32 %2, label %52 [
    i32 4, label %44
    i32 3, label %46
    i32 2, label %49
    i32 1, label %51
  ]

44:                                               ; preds = %43
  %45 = getelementptr inbounds nuw i8, ptr %0, i64 12
  store float 1.000000e+00, ptr %45, align 4, !tbaa !44
  br label %46

46:                                               ; preds = %44, %43
  %47 = getelementptr inbounds nuw i8, ptr %0, i64 8
  store float 0.000000e+00, ptr %47, align 4, !tbaa !44
  %48 = getelementptr inbounds nuw i8, ptr %0, i64 4
  store float 0.000000e+00, ptr %48, align 4, !tbaa !44
  store float 0.000000e+00, ptr %0, align 4, !tbaa !44
  br label %52

49:                                               ; preds = %43
  %50 = getelementptr inbounds nuw i8, ptr %0, i64 4
  store float 1.000000e+00, ptr %50, align 4, !tbaa !44
  br label %51

51:                                               ; preds = %49, %43
  store float 0.000000e+00, ptr %0, align 4, !tbaa !44
  br label %52

52:                                               ; preds = %39, %41, %38, %43, %46, %51
  ret void
}